target datalayout = "e-m:e-p270:32:32-p271:32:32-p272:64:64-i64:64-i128:128-f80:128-n8:16:32:64-S128"
target triple = "x86_64-pc-linux-gnu"

%"class.std::__cxx11::basic_string" = type { %"struct.std::__cxx11::basic_string<char>::_Alloc_hider", i64, %union.anon }
%"struct.std::__cxx11::basic_string<char>::_Alloc_hider" = type { ptr }
%union.anon = type { i64, [8 x i8] }
%struct.Node = type <{ %"class.std::__cxx11::basic_string", i64, i64, i32, i8, i8, i8, i8, ptr, %"class.std::vector", %"class.std::vector", i32, [4 x i8] }>
%"class.std::vector" = type { %"struct.std::_Vector_base" }
%"struct.std::_Vector_base" = type { %"struct.std::_Vector_base<Edge *, std::allocator<Edge *>>::_Vector_impl" }
%"struct.std::_Vector_base<Edge *, std::allocator<Edge *>>::_Vector_impl" = type { %"struct.std::_Vector_base<Edge *, std::allocator<Edge *>>::_Vector_impl_data" }
%"struct.std::_Vector_base<Edge *, std::allocator<Edge *>>::_Vector_impl_data" = type { ptr, ptr, ptr }

; Function Attrs: mustprogress uwtable
define dso_local noundef zeroext i1 @_ZN4Node4StatEP13DiskInterfacePNSt7__cxx1112basic_stringIcSt11char_traitsIcESaIcEEE(ptr noundef nonnull align 8 dereferenceable(116) %0, ptr noundef %1, ptr noundef %2) #0 align 2 {
  %4 = alloca i1, align 1
  %5 = alloca ptr, align 8
  %6 = alloca ptr, align 8
  %7 = alloca ptr, align 8
  store ptr %0, ptr %5, align 8, !tbaa !4
  store ptr %1, ptr %6, align 8, !tbaa !9
  store ptr %2, ptr %7, align 8, !tbaa !11
  %8 = load ptr, ptr %5, align 8
  %9 = load ptr, ptr %6, align 8, !tbaa !9
  %10 = getelementptr inbounds nuw %struct.Node, ptr %8, i32 0, i32 0
  %11 = load ptr, ptr %7, align 8, !tbaa !11
  %12 = load ptr, ptr %9, align 8, !tbaa !13
  %13 = getelementptr inbounds ptr, ptr %12, i64 3
  %14 = load ptr, ptr %13, align 8
  %15 = call noundef i64 %14(ptr noundef nonnull align 8 dereferenceable(8) %9, ptr noundef nonnull align 8 dereferenceable(32) %10, ptr noundef %11)
  %16 = getelementptr inbounds nuw %struct.Node, ptr %8, i32 0, i32 2
  store i64 %15, ptr %16, align 8, !tbaa !15
  %17 = getelementptr inbounds nuw %struct.Node, ptr %8, i32 0, i32 2
  %18 = load i64, ptr %17, align 8, !tbaa !15
  %19 = icmp eq i64 %18, -1
  br i1 %19, label %20, label %21

20:                                               ; preds = %3
  store i1 false, ptr %4, align 1
  br label %27

21:                                               ; preds = %3
  %22 = getelementptr inbounds nuw %struct.Node, ptr %8, i32 0, i32 2
  %23 = load i64, ptr %22, align 8, !tbaa !15
  %24 = icmp ne i64 %23, 0
  %25 = select i1 %24, i32 2, i32 1
  %26 = getelementptr inbounds nuw %struct.Node, ptr %8, i32 0, i32 3
  store i32 %25, ptr %26, align 8, !tbaa !31
  store i1 true, ptr %4, align 1
  br label %27

27:                                               ; preds = %21, %20
  %28 = load i1, ptr %4, align 1
  ret i1 %28
}