; Function Attrs: mustprogress uwtable
define dso_local noundef zeroext i1 @_ZN4Node4StatEP13DiskInterfacePNSt7__cxx1112basic_stringIcSt11char_traitsIcESaIcEEE(ptr noundef nonnull align 8 dereferenceable(116) %0, ptr noundef %1, ptr noundef %2) local_unnamed_addr #0 align 2 {
  %4 = load ptr, ptr %1, align 8, !tbaa !4
  %5 = getelementptr inbounds nuw i8, ptr %4, i64 24
  %6 = load ptr, ptr %5, align 8
  %7 = tail call noundef i64 %6(ptr noundef nonnull align 8 dereferenceable(8) %1, ptr noundef nonnull align 8 dereferenceable(32) %0, ptr noundef %2)
  %8 = getelementptr inbounds nuw i8, ptr %0, i64 40
  store i64 %7, ptr %8, align 8, !tbaa !7
  %9 = icmp ne i64 %7, -1
  br i1 %9, label %10, label %13

10:                                               ; preds = %3
  %.not = icmp eq i64 %7, 0
  %11 = select i1 %.not, i32 1, i32 2
  %12 = getelementptr inbounds nuw i8, ptr %0, i64 48
  store i32 %11, ptr %12, align 8, !tbaa !25
  br label %13

13:                                               ; preds = %3, %10
  ret i1 %9
}